ccopy_reg
_reconstructor
p0
(cdata
CData
p1
c__builtin__
object
p2
Ntp3
Rp4
(dp5
S'_level'
p6
I6
sS'_history'
p7
ccollections
OrderedDict
p8
((lp9
(lp10
F1480921702.539857
ag0
(cdata
CRcd
p11
g2
Ntp12
Rp13
(dp14
S'_time'
p15
F1480921702.539857
sS'_rlt'
p16
S'362'
p17
sg6
I3
sS'_ans'
p18
I01
sS'_usr'
p19
S'362'
p20
sbaa(lp21
F1480921707.873657
ag0
(g11
g2
Ntp22
Rp23
(dp24
g15
F1480921707.873657
sg16
S'630'
p25
sg6
I3
sg18
I01
sg19
S'630'
p26
sbaa(lp27
F1480921712.410573
ag0
(g11
g2
Ntp28
Rp29
(dp30
g15
F1480921712.410573
sg16
S'747'
p31
sg6
I3
sg18
I00
sg19
S'47'
p32
sbaa(lp33
F1480921716.291628
ag0
(g11
g2
Ntp34
Rp35
(dp36
g15
F1480921716.291628
sg16
S'616'
p37
sg6
I3
sg18
I01
sg19
S'616'
p38
sbaa(lp39
F1480921722.302134
ag0
(g11
g2
Ntp40
Rp41
(dp42
g15
F1480921722.302134
sg16
S'0953'
p43
sg6
I4
sg18
I01
sg19
S'0953'
p44
sbaa(lp45
F1480921728.317217
ag0
(g11
g2
Ntp46
Rp47
(dp48
g15
F1480921728.317217
sg16
S'9489'
p49
sg6
I4
sg18
I00
sg19
S'948'
p50
sbaa(lp51
F1480921734.332331
ag0
(g11
g2
Ntp52
Rp53
(dp54
g15
F1480921734.332331
sg16
S'4689'
p55
sg6
I4
sg18
I00
sg19
S'468'
p56
sbaa(lp57
F1480921740.347201
ag0
(g11
g2
Ntp58
Rp59
(dp60
g15
F1480921740.347201
sg16
S'3413'
p61
sg6
I4
sg18
I00
sg19
S'341'
p62
sbaa(lp63
F1480921744.587461
ag0
(g11
g2
Ntp64
Rp65
(dp66
g15
F1480921744.587461
sg16
S'996'
p67
sg6
I3
sg18
I01
sg19
S'996'
p68
sbaa(lp69
F1480921924.679551
ag0
(g11
g2
Ntp70
Rp71
(dp72
g15
F1480921924.679551
sg16
S'885'
p73
sg6
I3
sg18
I01
sg19
S'885'
p74
sbaa(lp75
F1480921928.827414
ag0
(g11
g2
Ntp76
Rp77
(dp78
g15
F1480921928.827414
sg16
S'523'
p79
sg6
I3
sg18
I01
sg19
S'523'
p80
sbaa(lp81
F1480921934.835679
ag0
(g11
g2
Ntp82
Rp83
(dp84
g15
F1480921934.835679
sg16
S'9535'
p85
sg6
I4
sg18
I00
sg19
S'953'
p86
sbaa(lp87
F1480921940.849266
ag0
(g11
g2
Ntp88
Rp89
(dp90
g15
F1480921940.849266
sg16
S'0996'
p91
sg6
I4
sg18
I01
sg19
S'0996'
p92
sbaa(lp93
F1480922056.222109
ag0
(g11
g2
Ntp94
Rp95
(dp96
g15
F1480922056.222109
sg16
S'1932'
p97
sg6
I4
sg18
I01
sg19
S'1932'
p98
sbaa(lp99
F1480922064.351506
ag0
(g11
g2
Ntp100
Rp101
(dp102
g15
F1480922064.351506
sg16
S'4834'
p103
sg6
I4
sg18
I01
sg19
S'4834'
p104
sbaa(lp105
F1480922072.766494
ag0
(g11
g2
Ntp106
Rp107
(dp108
g15
F1480922072.766494
sg16
S'67476'
p109
sg6
I5
sg18
I01
sg19
S'67476'
p110
sbaa(lp111
F1480922084.909533
ag0
(g11
g2
Ntp112
Rp113
(dp114
g15
F1480922084.909533
sg16
S'31083'
p115
sg6
I5
sg18
I00
sg19
S'31683'
p116
sbaa(lp117
F1480922093.460726
ag0
(g11
g2
Ntp118
Rp119
(dp120
g15
F1480922093.460726
sg16
S'93654'
p121
sg6
I5
sg18
I01
sg19
S'93654'
p122
sbaa(lp123
F1480922102.957704
ag0
(g11
g2
Ntp124
Rp125
(dp126
g15
F1480922102.957704
sg16
S'68173'
p127
sg6
I5
sg18
I01
sg19
S'68173'
p128
sbaa(lp129
F1480923250.753367
ag0
(g11
g2
Ntp130
Rp131
(dp132
g15
F1480923250.753367
sg16
S'128434'
p133
sg6
I6
sg18
I01
sg19
S'128434'
p134
sbaa(lp135
F1480923261.855742
ag0
(g11
g2
Ntp136
Rp137
(dp138
g15
F1480923261.855742
sg16
S'068401'
p139
sg6
I6
sg18
I00
sg19
S'0068401'
p140
sbaa(lp141
F1480923269.397975
ag0
(g11
g2
Ntp142
Rp143
(dp144
g15
F1480923269.397975
sg16
S'182249'
p145
sg6
I6
sg18
I01
sg19
S'182249'
p146
sbaatp147
Rp148
sS'_nowfail'
p149
I1
sS'_name'
p150
S'a'
p151
sS'_trycnt'
p152
I3
sS'_nowsucc'
p153
I2
sb.