ccopy_reg
_reconstructor
p0
(cdata
CData
p1
c__builtin__
object
p2
Ntp3
Rp4
(dp5
S'_level'
p6
I12
sS'_history'
p7
ccollections
OrderedDict
p8
((lp9
(lp10
F1480921702.539857
ag0
(cdata
CRcd
p11
g2
Ntp12
Rp13
(dp14
S'_time'
p15
F1480921702.539857
sS'_rlt'
p16
S'362'
p17
sg6
I3
sS'_ans'
p18
I01
sS'_usr'
p19
S'362'
p20
sbaa(lp21
F1480921707.873657
ag0
(g11
g2
Ntp22
Rp23
(dp24
g15
F1480921707.873657
sg16
S'630'
p25
sg6
I3
sg18
I01
sg19
S'630'
p26
sbaa(lp27
F1480921712.410573
ag0
(g11
g2
Ntp28
Rp29
(dp30
g15
F1480921712.410573
sg16
S'747'
p31
sg6
I3
sg18
I00
sg19
S'47'
p32
sbaa(lp33
F1480921716.291628
ag0
(g11
g2
Ntp34
Rp35
(dp36
g15
F1480921716.291628
sg16
S'616'
p37
sg6
I3
sg18
I01
sg19
S'616'
p38
sbaa(lp39
F1480921722.302134
ag0
(g11
g2
Ntp40
Rp41
(dp42
g15
F1480921722.302134
sg16
S'0953'
p43
sg6
I4
sg18
I01
sg19
S'0953'
p44
sbaa(lp45
F1480921728.317217
ag0
(g11
g2
Ntp46
Rp47
(dp48
g15
F1480921728.317217
sg16
S'9489'
p49
sg6
I4
sg18
I00
sg19
S'948'
p50
sbaa(lp51
F1480921734.332331
ag0
(g11
g2
Ntp52
Rp53
(dp54
g15
F1480921734.332331
sg16
S'4689'
p55
sg6
I4
sg18
I00
sg19
S'468'
p56
sbaa(lp57
F1480921740.347201
ag0
(g11
g2
Ntp58
Rp59
(dp60
g15
F1480921740.347201
sg16
S'3413'
p61
sg6
I4
sg18
I00
sg19
S'341'
p62
sbaa(lp63
F1480921744.587461
ag0
(g11
g2
Ntp64
Rp65
(dp66
g15
F1480921744.587461
sg16
S'996'
p67
sg6
I3
sg18
I01
sg19
S'996'
p68
sbaa(lp69
F1480921924.679551
ag0
(g11
g2
Ntp70
Rp71
(dp72
g15
F1480921924.679551
sg16
S'885'
p73
sg6
I3
sg18
I01
sg19
S'885'
p74
sbaa(lp75
F1480921928.827414
ag0
(g11
g2
Ntp76
Rp77
(dp78
g15
F1480921928.827414
sg16
S'523'
p79
sg6
I3
sg18
I01
sg19
S'523'
p80
sbaa(lp81
F1480921934.835679
ag0
(g11
g2
Ntp82
Rp83
(dp84
g15
F1480921934.835679
sg16
S'9535'
p85
sg6
I4
sg18
I00
sg19
S'953'
p86
sbaa(lp87
F1480921940.849266
ag0
(g11
g2
Ntp88
Rp89
(dp90
g15
F1480921940.849266
sg16
S'0996'
p91
sg6
I4
sg18
I01
sg19
S'0996'
p92
sbaa(lp93
F1480922056.222109
ag0
(g11
g2
Ntp94
Rp95
(dp96
g15
F1480922056.222109
sg16
S'1932'
p97
sg6
I4
sg18
I01
sg19
S'1932'
p98
sbaa(lp99
F1480922064.351506
ag0
(g11
g2
Ntp100
Rp101
(dp102
g15
F1480922064.351506
sg16
S'4834'
p103
sg6
I4
sg18
I01
sg19
S'4834'
p104
sbaa(lp105
F1480922072.766494
ag0
(g11
g2
Ntp106
Rp107
(dp108
g15
F1480922072.766494
sg16
S'67476'
p109
sg6
I5
sg18
I01
sg19
S'67476'
p110
sbaa(lp111
F1480922084.909533
ag0
(g11
g2
Ntp112
Rp113
(dp114
g15
F1480922084.909533
sg16
S'31083'
p115
sg6
I5
sg18
I00
sg19
S'31683'
p116
sbaa(lp117
F1480922093.460726
ag0
(g11
g2
Ntp118
Rp119
(dp120
g15
F1480922093.460726
sg16
S'93654'
p121
sg6
I5
sg18
I01
sg19
S'93654'
p122
sbaa(lp123
F1480922102.957704
ag0
(g11
g2
Ntp124
Rp125
(dp126
g15
F1480922102.957704
sg16
S'68173'
p127
sg6
I5
sg18
I01
sg19
S'68173'
p128
sbaa(lp129
F1480923250.753367
ag0
(g11
g2
Ntp130
Rp131
(dp132
g15
F1480923250.753367
sg16
S'128434'
p133
sg6
I6
sg18
I01
sg19
S'128434'
p134
sbaa(lp135
F1480923261.855742
ag0
(g11
g2
Ntp136
Rp137
(dp138
g15
F1480923261.855742
sg16
S'068401'
p139
sg6
I6
sg18
I00
sg19
S'0068401'
p140
sbaa(lp141
F1480923269.397975
ag0
(g11
g2
Ntp142
Rp143
(dp144
g15
F1480923269.397975
sg16
S'182249'
p145
sg6
I6
sg18
I01
sg19
S'182249'
p146
sbaa(lp147
F1480990968.793342
ag0
(g11
g2
Ntp148
Rp149
(dp150
g15
F1480990968.793342
sg16
S'242326'
p151
sg6
I6
sg18
I01
sg19
S'242326'
p152
sbaa(lp153
F1480990978.146871
ag0
(g11
g2
Ntp154
Rp155
(dp156
g15
F1480990978.146871
sg16
S'5539427'
p157
sg6
I7
sg18
I01
sg19
S'5539427'
p158
sbaa(lp159
F1480990987.430836
ag0
(g11
g2
Ntp160
Rp161
(dp162
g15
F1480990987.430836
sg16
S'4419809'
p163
sg6
I7
sg18
I01
sg19
S'4419809'
p164
sbaa(lp165
F1480990998.707466
ag0
(g11
g2
Ntp166
Rp167
(dp168
g15
F1480990998.707466
sg16
S'2360967'
p169
sg6
I7
sg18
I01
sg19
S'2360967'
p170
sbaa(lp171
F1480991009.042946
ag0
(g11
g2
Ntp172
Rp173
(dp174
g15
F1480991009.042946
sg16
S'34866607'
p175
sg6
I8
sg18
I01
sg19
S'34866607'
p176
sbaa(lp177
F1480991020.41931
ag0
(g11
g2
Ntp178
Rp179
(dp180
g15
F1480991020.41931
sg16
S'34537848'
p181
sg6
I8
sg18
I01
sg19
S'34537848'
p182
sbaa(lp183
F1480991031.159883
ag0
(g11
g2
Ntp184
Rp185
(dp186
g15
F1480991031.159883
sg16
S'89675209'
p187
sg6
I8
sg18
I01
sg19
S'89675209'
p188
sbaa(lp189
F1480991045.130053
ag0
(g11
g2
Ntp190
Rp191
(dp192
g15
F1480991045.130053
sg16
S'605734288'
p193
sg6
I9
sg18
I01
sg19
S'605734288'
p194
sbaa(lp195
F1480991058.95915
ag0
(g11
g2
Ntp196
Rp197
(dp198
g15
F1480991058.95915
sg16
S'618442352'
p199
sg6
I9
sg18
I01
sg19
S'618442352'
p200
sbaa(lp201
F1480991071.020387
ag0
(g11
g2
Ntp202
Rp203
(dp204
g15
F1480991071.020387
sg16
S'050838694'
p205
sg6
I9
sg18
I01
sg19
S'050838694'
p206
sbaa(lp207
F1480991085.49129
ag0
(g11
g2
Ntp208
Rp209
(dp210
g15
F1480991085.49129
sg16
S'2361938850'
p211
sg6
I10
sg18
I01
sg19
S'2361938850'
p212
sbaa(lp213
F1480991098.046711
ag0
(g11
g2
Ntp214
Rp215
(dp216
g15
F1480991098.046711
sg16
S'5412422561'
p217
sg6
I10
sg18
I01
sg19
S'5412422561'
p218
sbaa(lp219
F1480991111.76285
ag0
(g11
g2
Ntp220
Rp221
(dp222
g15
F1480991111.76285
sg16
S'0818075371'
p223
sg6
I10
sg18
I01
sg19
S'0818075371'
p224
sbaa(lp225
F1480991126.389236
ag0
(g11
g2
Ntp226
Rp227
(dp228
g15
F1480991126.389236
sg16
S'00084121510'
p229
sg6
I11
sg18
I01
sg19
S'00084121510'
p230
sbaa(lp231
F1480991140.326801
ag0
(g11
g2
Ntp232
Rp233
(dp234
g15
F1480991140.326801
sg16
S'25393403724'
p235
sg6
I11
sg18
I00
sg19
S'25392403724'
p236
sbaa(lp237
F1480991158.576224
ag0
(g11
g2
Ntp238
Rp239
(dp240
g15
F1480991158.576224
sg16
S'17226311010'
p241
sg6
I11
sg18
I00
sg19
S'17226701010'
p242
sbaa(lp243
F1480991175.38265
ag0
(g11
g2
Ntp244
Rp245
(dp246
g15
F1480991175.38265
sg16
S'77432811265'
p247
sg6
I11
sg18
I00
sg19
S'77432861265'
p248
sbaa(lp249
F1480991190.221691
ag0
(g11
g2
Ntp250
Rp251
(dp252
g15
F1480991190.221691
sg16
S'6509869764'
p253
sg6
I10
sg18
I00
sg19
S'6509629764'
p254
sbaa(lp255
F1480991203.779816
ag0
(g11
g2
Ntp256
Rp257
(dp258
g15
F1480991203.779816
sg16
S'0079271270'
p259
sg6
I10
sg18
I01
sg19
S'0079271270'
p260
sbaa(lp261
F1480991219.054154
ag0
(g11
g2
Ntp262
Rp263
(dp264
g15
F1480991219.054154
sg16
S'0676350387'
p265
sg6
I10
sg18
I01
sg19
S'0676350387'
p266
sbaa(lp267
F1480991231.916223
ag0
(g11
g2
Ntp268
Rp269
(dp270
g15
F1480991231.916223
sg16
S'3227860067'
p271
sg6
I10
sg18
I00
sg19
S'3267320076'
p272
sbaa(lp273
F1481003758.434919
ag0
(g11
g2
Ntp274
Rp275
(dp276
g15
F1481003758.434919
sg16
S'9804043908'
p277
sg6
I10
sg18
I01
sg19
S'9804043908'
p278
sbaa(lp279
F1481003819.571308
ag0
(g11
g2
Ntp280
Rp281
(dp282
g15
F1481003819.571308
sg16
S'04431407549'
p283
sg6
I11
sg18
I00
sg19
S'04431704549'
p284
sbaa(lp285
F1481003834.064754
ag0
(g11
g2
Ntp286
Rp287
(dp288
g15
F1481003834.064754
sg16
S'25257920592'
p289
sg6
I11
sg18
I01
sg19
S'25257920592'
p290
sbaa(lp291
F1481003848.015365
ag0
(g11
g2
Ntp292
Rp293
(dp294
g15
F1481003848.015365
sg16
S'93062802990'
p295
sg6
I11
sg18
I01
sg19
S'93062802990'
p296
sbaa(lp297
F1481003862.289732
ag0
(g11
g2
Ntp298
Rp299
(dp300
g15
F1481003862.289732
sg16
S'97301268286'
p301
sg6
I11
sg18
I01
sg19
S'97301268286'
p302
sbaa(lp303
F1481003878.397491
ag0
(g11
g2
Ntp304
Rp305
(dp306
g15
F1481003878.397491
sg16
S'057419523162'
p307
sg6
I12
sg18
I00
sg19
S'097419523162'
p308
sbaa(lp309
F1481003896.464822
ag0
(g11
g2
Ntp310
Rp311
(dp312
g15
F1481003896.464822
sg16
S'046191338370'
p313
sg6
I12
sg18
I00
sg19
S'046133633870'
p314
sbaatp315
Rp316
sS'_nowfail'
p317
I2
sS'_name'
p318
S'a'
p319
sS'_trycnt'
p320
I3
sS'_nowsucc'
p321
I0
sb.